; Function Attrs: nounwind uwtable
define internal i32 @sort_item_compare(ptr noundef readonly captures(none) %0, ptr noundef readonly captures(none) %1, ptr noundef %2) #0 {
  %4 = load ptr, ptr %0, align 8
  %5 = load i64, ptr %4, align 8
  %6 = getelementptr inbounds nuw i8, ptr %0, i64 8
  %7 = load ptr, ptr %6, align 8
  %8 = load i8, ptr %7, align 1, !range !9, !noundef !10
  %9 = trunc nuw i8 %8 to i1
  %10 = load ptr, ptr %1, align 8
  %11 = load i64, ptr %10, align 8
  %12 = getelementptr inbounds nuw i8, ptr %1, i64 8
  %13 = load ptr, ptr %12, align 8
  %14 = load i8, ptr %13, align 1, !range !9, !noundef !10
  %15 = trunc nuw i8 %14 to i1
  br i1 %9, label %16, label %21

16:                                               ; preds = %3
  br i1 %15, label %ApplySortComparator.exit, label %17

17:                                               ; preds = %16
  %18 = getelementptr inbounds nuw i8, ptr %2, i64 13
  %19 = load i8, ptr %18, align 1, !range !9, !noundef !10
  %20 = trunc nuw i8 %19 to i1
  %..i = select i1 %20, i32 -1, i32 1
  br label %ApplySortComparator.exit

21:                                               ; preds = %3
  br i1 %15, label %22, label %26

22:                                               ; preds = %21
  %23 = getelementptr inbounds nuw i8, ptr %2, i64 13
  %24 = load i8, ptr %23, align 1, !range !9, !noundef !10
  %25 = trunc nuw i8 %24 to i1
  %.12.i = select i1 %25, i32 1, i32 -1
  br label %ApplySortComparator.exit

26:                                               ; preds = %21
  %27 = getelementptr inbounds nuw i8, ptr %2, i64 24
  %28 = load ptr, ptr %27, align 8
  %29 = tail call i32 %28(i64 noundef %5, i64 noundef %11, ptr noundef %2) #13
  %30 = getelementptr inbounds nuw i8, ptr %2, i64 12
  %31 = load i8, ptr %30, align 4, !range !9, !noundef !10
  %32 = trunc nuw i8 %31 to i1
  br i1 %32, label %33, label %ApplySortComparator.exit

33:                                               ; preds = %26
  %34 = icmp slt i32 %29, 0
  %35 = sub i32 0, %29
  %36 = select i1 %34, i32 1, i32 %35
  br label %ApplySortComparator.exit

ApplySortComparator.exit:                         ; preds = %16, %17, %22, %26, %33
  %.0.i = phi i32 [ %36, %33 ], [ %29, %26 ], [ 0, %16 ], [ %..i, %17 ], [ %.12.i, %22 ]
  ret i32 %.0.i
}